; Function Attrs: cold nounwind optsize uwtable
define internal noundef i32 @mobiclip_close(ptr noundef readonly captures(none) %0) #0 {
  %2 = getelementptr inbounds nuw i8, ptr %0, i64 32
  %3 = load ptr, ptr %2, align 8, !tbaa !4
  %4 = getelementptr inbounds nuw i8, ptr %3, i64 96
  tail call void @av_freep(ptr noundef nonnull %4) #11
  %5 = getelementptr inbounds nuw i8, ptr %3, i64 104
  store i32 0, ptr %5, align 8, !tbaa !79
  %6 = getelementptr inbounds nuw i8, ptr %3, i64 656
  tail call void @av_freep(ptr noundef nonnull %6) #11
  %7 = getelementptr inbounds nuw i8, ptr %3, i64 664
  store i32 0, ptr %7, align 8, !tbaa !35
  br label %9

8:                                                ; preds = %9
  ret i32 0

9:                                                ; preds = %1, %9
  %indvars.iv = phi i64 [ 0, %1 ], [ %indvars.iv.next, %9 ]
  %10 = getelementptr inbounds nuw [6 x ptr], ptr %3, i64 0, i64 %indvars.iv
  tail call void @av_frame_free(ptr noundef %10) #11
  %indvars.iv.next = add nuw nsw i64 %indvars.iv, 1
  %exitcond.not = icmp eq i64 %indvars.iv.next, 6
  br i1 %exitcond.not, label %8, label %9, !llvm.loop !80
}